; ModuleID = '11/239.c'
source_filename = "11/239.c"
target datalayout = "e-m:e-p270:32:32-p271:32:32-p272:64:64-i64:64-f80:128-n8:16:32:64-S128"
target triple = "x86_64-pc-linux-gnu"

@.str = private unnamed_addr constant [9 x i8] c"%d %d %d\00", align 1
@.str.1 = private unnamed_addr constant [4 x i8] c"%d\0A\00", align 1

; Function Attrs: noinline nounwind uwtable
define dso_local i32 @main() #0 {
  %1 = alloca i32, align 4
  %2 = alloca i32, align 4
  %3 = alloca i32, align 4
  %4 = alloca i32, align 4
  %5 = alloca i32, align 4
  %6 = alloca i32, align 4
  %7 = alloca i32, align 4
  store i32 0, i32* %1, align 4
  store i32 1, i32* %7, align 4
  br label %8

8:                                                ; preds = %80, %0
  %9 = load i32, i32* %7, align 4
  %10 = icmp sle i32 %9, 5
  br i1 %10, label %11, label %88

11:                                               ; preds = %8
  %12 = call i32 (i8*, ...) @__isoc99_scanf(i8* getelementptr inbounds ([9 x i8], [9 x i8]* @.str, i64 0, i64 0), i32* %2, i32* %3, i32* %4)
  store i32 1, i32* %6, align 4
  store i32 0, i32* %5, align 4
  br label %13

13:                                               ; preds = %77, %11
  %14 = load i32, i32* %6, align 4
  %15 = load i32, i32* %3, align 4
  %16 = icmp slt i32 %14, %15
  br i1 %16, label %17, label %80

17:                                               ; preds = %13
  %18 = load i32, i32* %6, align 4
  %19 = icmp eq i32 %18, 1
  br i1 %19, label %35, label %20

20:                                               ; preds = %17
  %21 = load i32, i32* %6, align 4
  %22 = icmp eq i32 %21, 3
  br i1 %22, label %35, label %23

23:                                               ; preds = %20
  %24 = load i32, i32* %6, align 4
  %25 = icmp eq i32 %24, 5
  br i1 %25, label %35, label %26

26:                                               ; preds = %23
  %27 = load i32, i32* %6, align 4
  %28 = icmp eq i32 %27, 7
  br i1 %28, label %35, label %29

29:                                               ; preds = %26
  %30 = load i32, i32* %6, align 4
  %31 = icmp eq i32 %30, 8
  br i1 %31, label %35, label %32

32:                                               ; preds = %29
  %33 = load i32, i32* %6, align 4
  %34 = icmp eq i32 %33, 10
  br i1 %34, label %35, label %38

35:                                               ; preds = %32, %29, %26, %23, %20, %17
  %36 = load i32, i32* %5, align 4
  %37 = add nsw i32 %36, 31
  store i32 %37, i32* %5, align 4
  br label %77

38:                                               ; preds = %32
  %39 = load i32, i32* %6, align 4
  %40 = icmp eq i32 %39, 2
  br i1 %40, label %41, label %60

41:                                               ; preds = %38
  %42 = load i32, i32* %2, align 4
  %43 = srem i32 %42, 4
  %44 = icmp eq i32 %43, 0
  br i1 %44, label %45, label %49

45:                                               ; preds = %41
  %46 = load i32, i32* %2, align 4
  %47 = srem i32 %46, 100
  %48 = icmp ne i32 %47, 0
  br i1 %48, label %53, label %49

49:                                               ; preds = %45, %41
  %50 = load i32, i32* %2, align 4
  %51 = srem i32 %50, 400
  %52 = icmp eq i32 %51, 0
  br i1 %52, label %53, label %56

53:                                               ; preds = %49, %45
  %54 = load i32, i32* %5, align 4
  %55 = add nsw i32 %54, 29
  store i32 %55, i32* %5, align 4
  br label %59

56:                                               ; preds = %49
  %57 = load i32, i32* %5, align 4
  %58 = add nsw i32 %57, 28
  store i32 %58, i32* %5, align 4
  br label %59

59:                                               ; preds = %56, %53
  br label %76

60:                                               ; preds = %38
  %61 = load i32, i32* %6, align 4
  %62 = icmp eq i32 %61, 4
  br i1 %62, label %72, label %63

63:                                               ; preds = %60
  %64 = load i32, i32* %6, align 4
  %65 = icmp eq i32 %64, 6
  br i1 %65, label %72, label %66

66:                                               ; preds = %63
  %67 = load i32, i32* %6, align 4
  %68 = icmp eq i32 %67, 9
  br i1 %68, label %72, label %69

69:                                               ; preds = %66
  %70 = load i32, i32* %6, align 4
  %71 = icmp eq i32 %70, 11
  br i1 %71, label %72, label %75

72:                                               ; preds = %69, %66, %63, %60
  %73 = load i32, i32* %5, align 4
  %74 = add nsw i32 %73, 30
  store i32 %74, i32* %5, align 4
  br label %75

75:                                               ; preds = %72, %69
  br label %76

76:                                               ; preds = %75, %59
  br label %77

77:                                               ; preds = %76, %35
  %78 = load i32, i32* %6, align 4
  %79 = add nsw i32 %78, 1
  store i32 %79, i32* %6, align 4
  br label %13

80:                                               ; preds = %13
  %81 = load i32, i32* %5, align 4
  %82 = load i32, i32* %4, align 4
  %83 = add nsw i32 %81, %82
  store i32 %83, i32* %5, align 4
  %84 = load i32, i32* %5, align 4
  %85 = call i32 (i8*, ...) @printf(i8* getelementptr inbounds ([4 x i8], [4 x i8]* @.str.1, i64 0, i64 0), i32 %84)
  %86 = load i32, i32* %7, align 4
  %87 = add nsw i32 %86, 1
  store i32 %87, i32* %7, align 4
  br label %8

88:                                               ; preds = %8
  ret i32 0
}

declare dso_local i32 @__isoc99_scanf(i8*, ...) #1

declare dso_local i32 @printf(i8*, ...) #1


!llvm.module.flags = !{!0}
!llvm.ident = !{!1}

!0 = !{i32 1, !"wchar_size", i32 4}
!1 = !{!"clang version 10.0.0-4ubuntu1 "}
